target datalayout = "e-m:e-p270:32:32-p271:32:32-p272:64:64-i64:64-i128:128-f80:128-n8:16:32:64-S128"
target triple = "x86_64-pc-linux-gnu"

%struct.ossl_param_st = type { ptr, i32, ptr, i64, i64 }
%struct.xorkey_st = type { [32 x i8], [32 x i8], i32, i32, ptr, %struct.CRYPTO_REF_COUNT }
%struct.CRYPTO_REF_COUNT = type { i32 }

@.str.19 = private unnamed_addr constant [5 x i8] c"priv\00", align 1
@.str.20 = private unnamed_addr constant [4 x i8] c"pub\00", align 1

; Function Attrs: nounwind uwtable
define internal i32 @xor_export(ptr noundef %0, i32 noundef %1, ptr noundef %2, ptr noundef %3) #0 {
  %5 = alloca i32, align 4
  %6 = alloca ptr, align 8
  %7 = alloca i32, align 4
  %8 = alloca ptr, align 8
  %9 = alloca ptr, align 8
  %10 = alloca ptr, align 8
  %11 = alloca [3 x %struct.ossl_param_st], align 16
  %12 = alloca ptr, align 8
  %13 = alloca i32, align 4
  %14 = alloca %struct.ossl_param_st, align 8
  %15 = alloca %struct.ossl_param_st, align 8
  %16 = alloca %struct.ossl_param_st, align 8
  store ptr %0, ptr %6, align 8, !tbaa !13
  store i32 %1, ptr %7, align 4, !tbaa !27
  store ptr %2, ptr %8, align 8, !tbaa !13
  store ptr %3, ptr %9, align 8, !tbaa !13
  call void @llvm.lifetime.start.p0(i64 8, ptr %10) #8
  %17 = load ptr, ptr %6, align 8, !tbaa !13
  store ptr %17, ptr %10, align 8, !tbaa !41
  call void @llvm.lifetime.start.p0(i64 120, ptr %11) #8
  call void @llvm.lifetime.start.p0(i64 8, ptr %12) #8
  %18 = getelementptr inbounds [3 x %struct.ossl_param_st], ptr %11, i64 0, i64 0
  store ptr %18, ptr %12, align 8, !tbaa !43
  %19 = load ptr, ptr %10, align 8, !tbaa !41
  %20 = icmp eq ptr %19, null
  br i1 %20, label %25, label %21

21:                                               ; preds = %4
  %22 = load i32, ptr %7, align 4, !tbaa !27
  %23 = and i32 %22, 3
  %24 = icmp eq i32 %23, 0
  br i1 %24, label %25, label %26

25:                                               ; preds = %21, %4
  store i32 0, ptr %5, align 4
  store i32 1, ptr %13, align 4
  br label %43

26:                                               ; preds = %21
  %27 = load ptr, ptr %12, align 8, !tbaa !43
  %28 = getelementptr inbounds nuw %struct.ossl_param_st, ptr %27, i32 1
  store ptr %28, ptr %12, align 8, !tbaa !43
  call void @llvm.lifetime.start.p0(i64 40, ptr %14) #8
  %29 = load ptr, ptr %10, align 8, !tbaa !41
  %30 = getelementptr inbounds nuw %struct.xorkey_st, ptr %29, i32 0, i32 0
  %31 = getelementptr inbounds [32 x i8], ptr %30, i64 0, i64 0
  call void @OSSL_PARAM_construct_octet_string(ptr dead_on_unwind writable sret(%struct.ossl_param_st) align 8 %14, ptr noundef @.str.19, ptr noundef %31, i64 noundef 32)
  call void @llvm.memcpy.p0.p0.i64(ptr align 8 %27, ptr align 8 %14, i64 40, i1 false), !tbaa.struct !60
  call void @llvm.lifetime.end.p0(i64 40, ptr %14) #8
  %32 = load ptr, ptr %12, align 8, !tbaa !43
  %33 = getelementptr inbounds nuw %struct.ossl_param_st, ptr %32, i32 1
  store ptr %33, ptr %12, align 8, !tbaa !43
  call void @llvm.lifetime.start.p0(i64 40, ptr %15) #8
  %34 = load ptr, ptr %10, align 8, !tbaa !41
  %35 = getelementptr inbounds nuw %struct.xorkey_st, ptr %34, i32 0, i32 1
  %36 = getelementptr inbounds [32 x i8], ptr %35, i64 0, i64 0
  call void @OSSL_PARAM_construct_octet_string(ptr dead_on_unwind writable sret(%struct.ossl_param_st) align 8 %15, ptr noundef @.str.20, ptr noundef %36, i64 noundef 32)
  call void @llvm.memcpy.p0.p0.i64(ptr align 8 %32, ptr align 8 %15, i64 40, i1 false), !tbaa.struct !60
  call void @llvm.lifetime.end.p0(i64 40, ptr %15) #8
  %37 = load ptr, ptr %12, align 8, !tbaa !43
  %38 = getelementptr inbounds nuw %struct.ossl_param_st, ptr %37, i32 1
  store ptr %38, ptr %12, align 8, !tbaa !43
  call void @llvm.lifetime.start.p0(i64 40, ptr %16) #8
  call void @OSSL_PARAM_construct_end(ptr dead_on_unwind writable sret(%struct.ossl_param_st) align 8 %16)
  call void @llvm.memcpy.p0.p0.i64(ptr align 8 %37, ptr align 8 %16, i64 40, i1 false), !tbaa.struct !60
  call void @llvm.lifetime.end.p0(i64 40, ptr %16) #8
  %39 = load ptr, ptr %8, align 8, !tbaa !13
  %40 = getelementptr inbounds [3 x %struct.ossl_param_st], ptr %11, i64 0, i64 0
  %41 = load ptr, ptr %9, align 8, !tbaa !13
  %42 = call i32 %39(ptr noundef %40, ptr noundef %41)
  store i32 %42, ptr %5, align 4
  store i32 1, ptr %13, align 4
  br label %43

43:                                               ; preds = %26, %25
  call void @llvm.lifetime.end.p0(i64 8, ptr %12) #8
  call void @llvm.lifetime.end.p0(i64 120, ptr %11) #8
  call void @llvm.lifetime.end.p0(i64 8, ptr %10) #8
  %44 = load i32, ptr %5, align 4
  ret i32 %44
}