; Function Attrs: nounwind uwtable
define internal i32 @xor_export(ptr noundef %0, i32 noundef %1, ptr noundef readonly captures(none) %2, ptr noundef %3) #0 {
  %5 = alloca [3 x %struct.ossl_param_st], align 16
  %6 = alloca %struct.ossl_param_st, align 8
  %7 = alloca %struct.ossl_param_st, align 8
  call void @llvm.lifetime.start.p0(i64 120, ptr nonnull %5) #16
  %8 = icmp eq ptr %0, null
  %9 = and i32 %1, 3
  %10 = icmp eq i32 %9, 0
  %or.cond = or i1 %8, %10
  br i1 %or.cond, label %16, label %11

11:                                               ; preds = %4
  %12 = getelementptr inbounds nuw i8, ptr %5, i64 40
  call void @OSSL_PARAM_construct_octet_string(ptr dead_on_unwind nonnull writable sret(%struct.ossl_param_st) align 8 %5, ptr noundef nonnull @.str.19, ptr noundef nonnull %0, i64 noundef 32) #16
  %13 = getelementptr inbounds nuw i8, ptr %5, i64 80
  call void @llvm.lifetime.start.p0(i64 40, ptr nonnull %6) #16
  %14 = getelementptr inbounds nuw i8, ptr %0, i64 32
  call void @OSSL_PARAM_construct_octet_string(ptr dead_on_unwind nonnull writable sret(%struct.ossl_param_st) align 8 %6, ptr noundef nonnull @.str.20, ptr noundef nonnull %14, i64 noundef 32) #16
  call void @llvm.memcpy.p0.p0.i64(ptr noundef nonnull align 8 dereferenceable(40) %12, ptr noundef nonnull align 8 dereferenceable(40) %6, i64 40, i1 false), !tbaa.struct !48
  call void @llvm.lifetime.end.p0(i64 40, ptr nonnull %6) #16
  call void @llvm.lifetime.start.p0(i64 40, ptr nonnull %7) #16
  call void @OSSL_PARAM_construct_end(ptr dead_on_unwind nonnull writable sret(%struct.ossl_param_st) align 8 %7) #16
  call void @llvm.memcpy.p0.p0.i64(ptr noundef nonnull align 16 dereferenceable(40) %13, ptr noundef nonnull align 8 dereferenceable(40) %7, i64 40, i1 false), !tbaa.struct !48
  call void @llvm.lifetime.end.p0(i64 40, ptr nonnull %7) #16
  %15 = call i32 %2(ptr noundef nonnull %5, ptr noundef %3) #16
  br label %16

16:                                               ; preds = %4, %11
  %.0 = phi i32 [ %15, %11 ], [ 0, %4 ]
  call void @llvm.lifetime.end.p0(i64 120, ptr nonnull %5) #16
  ret i32 %.0
}